target datalayout = "e-m:e-p270:32:32-p271:32:32-p272:64:64-i64:64-i128:128-f80:128-n8:16:32:64-S128"
target triple = "x86_64-pc-linux-gnu"

; Function Attrs: nounwind uwtable
define void @stbiw__jpg_calcBits(i32 noundef %0, ptr noundef %1) #0 {
  %3 = alloca i32, align 4
  %4 = alloca ptr, align 8
  %5 = alloca i32, align 4
  store i32 %0, ptr %3, align 4, !tbaa !3
  store ptr %1, ptr %4, align 8, !tbaa !77
  call void @llvm.lifetime.start.p0(i64 4, ptr %5) #11
  %6 = load i32, ptr %3, align 4, !tbaa !3
  %7 = icmp slt i32 %6, 0
  br i1 %7, label %8, label %11

8:                                                ; preds = %2
  %9 = load i32, ptr %3, align 4, !tbaa !3
  %10 = sub nsw i32 0, %9
  br label %13

11:                                               ; preds = %2
  %12 = load i32, ptr %3, align 4, !tbaa !3
  br label %13

13:                                               ; preds = %11, %8
  %14 = phi i32 [ %10, %8 ], [ %12, %11 ]
  store i32 %14, ptr %5, align 4, !tbaa !3
  %15 = load i32, ptr %3, align 4, !tbaa !3
  %16 = icmp slt i32 %15, 0
  br i1 %16, label %17, label %20

17:                                               ; preds = %13
  %18 = load i32, ptr %3, align 4, !tbaa !3
  %19 = sub nsw i32 %18, 1
  br label %22

20:                                               ; preds = %13
  %21 = load i32, ptr %3, align 4, !tbaa !3
  br label %22

22:                                               ; preds = %20, %17
  %23 = phi i32 [ %19, %17 ], [ %21, %20 ]
  store i32 %23, ptr %3, align 4, !tbaa !3
  %24 = load ptr, ptr %4, align 8, !tbaa !77
  %25 = getelementptr inbounds i16, ptr %24, i64 1
  store i16 1, ptr %25, align 2, !tbaa !55
  br label %26

26:                                               ; preds = %30, %22
  %27 = load i32, ptr %5, align 4, !tbaa !3
  %28 = ashr i32 %27, 1
  store i32 %28, ptr %5, align 4, !tbaa !3
  %29 = icmp ne i32 %28, 0
  br i1 %29, label %30, label %35

30:                                               ; preds = %26
  %31 = load ptr, ptr %4, align 8, !tbaa !77
  %32 = getelementptr inbounds i16, ptr %31, i64 1
  %33 = load i16, ptr %32, align 2, !tbaa !55
  %34 = add i16 %33, 1
  store i16 %34, ptr %32, align 2, !tbaa !55
  br label %26, !llvm.loop !80

35:                                               ; preds = %26
  %36 = load i32, ptr %3, align 4, !tbaa !3
  %37 = load ptr, ptr %4, align 8, !tbaa !77
  %38 = getelementptr inbounds i16, ptr %37, i64 1
  %39 = load i16, ptr %38, align 2, !tbaa !55
  %40 = zext i16 %39 to i32
  %41 = shl i32 1, %40
  %42 = sub nsw i32 %41, 1
  %43 = and i32 %36, %42
  %44 = trunc i32 %43 to i16
  %45 = load ptr, ptr %4, align 8, !tbaa !77
  %46 = getelementptr inbounds i16, ptr %45, i64 0
  store i16 %44, ptr %46, align 2, !tbaa !55
  call void @llvm.lifetime.end.p0(i64 4, ptr %5) #11
  ret void
}