; Function Attrs: mustprogress nofree norecurse nosync nounwind willreturn memory(argmem: write) uwtable
define void @stbiw__jpg_calcBits(i32 noundef %0, ptr noundef writeonly captures(none) initializes((0, 4)) %1) local_unnamed_addr #1 {
._crit_edge:
  %2 = tail call i32 @llvm.abs.i32(i32 %0, i1 true)
  %.not13 = icmp samesign ult i32 %2, 2
  %3 = tail call range(i32 1, 33) i32 @llvm.ctlz.i32(i32 %2, i1 true)
  %4 = trunc nuw nsw i32 %3 to i16
  %5 = sub nuw nsw i16 32, %4
  %storemerge.lcssa12 = select i1 %.not13, i16 1, i16 %5
  %6 = getelementptr inbounds nuw i8, ptr %1, i64 2
  store i16 %storemerge.lcssa12, ptr %6, align 2, !tbaa !44
  %.lobit = ashr i32 %0, 31
  %7 = add nsw i32 %.lobit, %0
  %8 = zext nneg i16 %storemerge.lcssa12 to i32
  %notmask = shl nsw i32 -1, %8
  %9 = xor i32 %notmask, -1
  %10 = and i32 %7, %9
  %11 = trunc i32 %10 to i16
  store i16 %11, ptr %1, align 2, !tbaa !44
  ret void
}